target datalayout = "e-m:e-p270:32:32-p271:32:32-p272:64:64-i64:64-i128:128-f80:128-n8:16:32:64-S128"
target triple = "x86_64-pc-linux-gnu"

@PyExc_ValueError = external global ptr, align 8
@.str.15 = private unnamed_addr constant [36 x i8] c"number of bits must be non-negative\00", align 1

; Function Attrs: nounwind uwtable
define internal ptr @_random_Random_getrandbits_impl(ptr noundef %0, i32 noundef %1) #0 {
  %3 = alloca ptr, align 8
  %4 = alloca ptr, align 8
  %5 = alloca i32, align 4
  %6 = alloca i32, align 4
  %7 = alloca i32, align 4
  %8 = alloca i32, align 4
  %9 = alloca ptr, align 8
  %10 = alloca ptr, align 8
  %11 = alloca i32, align 4
  store ptr %0, ptr %4, align 8, !tbaa !8
  store i32 %1, ptr %5, align 4, !tbaa !11
  call void @llvm.lifetime.start.p0(i64 4, ptr %6) #7
  call void @llvm.lifetime.start.p0(i64 4, ptr %7) #7
  call void @llvm.lifetime.start.p0(i64 4, ptr %8) #7
  call void @llvm.lifetime.start.p0(i64 8, ptr %9) #7
  call void @llvm.lifetime.start.p0(i64 8, ptr %10) #7
  %12 = load i32, ptr %5, align 4, !tbaa !11
  %13 = icmp slt i32 %12, 0
  br i1 %13, label %14, label %16

14:                                               ; preds = %2
  %15 = load ptr, ptr @PyExc_ValueError, align 8, !tbaa !3
  call void @PyErr_SetString(ptr noundef %15, ptr noundef @.str.15)
  store ptr null, ptr %3, align 8
  store i32 1, ptr %11, align 4
  br label %79

16:                                               ; preds = %2
  %17 = load i32, ptr %5, align 4, !tbaa !11
  %18 = icmp eq i32 %17, 0
  br i1 %18, label %19, label %21

19:                                               ; preds = %16
  %20 = call ptr @PyLong_FromLong(i64 noundef 0)
  store ptr %20, ptr %3, align 8
  store i32 1, ptr %11, align 4
  br label %79

21:                                               ; preds = %16
  %22 = load i32, ptr %5, align 4, !tbaa !11
  %23 = icmp sle i32 %22, 32
  br i1 %23, label %24, label %32

24:                                               ; preds = %21
  %25 = load ptr, ptr %4, align 8, !tbaa !8
  %26 = call i32 @genrand_uint32(ptr noundef %25)
  %27 = load i32, ptr %5, align 4, !tbaa !11
  %28 = sub i32 32, %27
  %29 = lshr i32 %26, %28
  %30 = zext i32 %29 to i64
  %31 = call ptr @PyLong_FromUnsignedLong(i64 noundef %30)
  store ptr %31, ptr %3, align 8
  store i32 1, ptr %11, align 4
  br label %79

32:                                               ; preds = %21
  %33 = load i32, ptr %5, align 4, !tbaa !11
  %34 = sub i32 %33, 1
  %35 = sdiv i32 %34, 32
  %36 = add i32 %35, 1
  store i32 %36, ptr %7, align 4, !tbaa !11
  %37 = load i32, ptr %7, align 4, !tbaa !11
  %38 = mul i32 %37, 4
  %39 = sext i32 %38 to i64
  %40 = call ptr @PyMem_Malloc(i64 noundef %39)
  store ptr %40, ptr %9, align 8, !tbaa !32
  %41 = load ptr, ptr %9, align 8, !tbaa !32
  %42 = icmp eq ptr %41, null
  br i1 %42, label %43, label %45

43:                                               ; preds = %32
  %44 = call ptr @PyErr_NoMemory()
  store ptr null, ptr %3, align 8
  store i32 1, ptr %11, align 4
  br label %79

45:                                               ; preds = %32
  store i32 0, ptr %6, align 4, !tbaa !11
  br label %46

46:                                               ; preds = %66, %45
  %47 = load i32, ptr %6, align 4, !tbaa !11
  %48 = load i32, ptr %7, align 4, !tbaa !11
  %49 = icmp slt i32 %47, %48
  br i1 %49, label %50, label %71

50:                                               ; preds = %46
  %51 = load ptr, ptr %4, align 8, !tbaa !8
  %52 = call i32 @genrand_uint32(ptr noundef %51)
  store i32 %52, ptr %8, align 4, !tbaa !11
  %53 = load i32, ptr %5, align 4, !tbaa !11
  %54 = icmp slt i32 %53, 32
  br i1 %54, label %55, label %60

55:                                               ; preds = %50
  %56 = load i32, ptr %5, align 4, !tbaa !11
  %57 = sub i32 32, %56
  %58 = load i32, ptr %8, align 4, !tbaa !11
  %59 = lshr i32 %58, %57
  store i32 %59, ptr %8, align 4, !tbaa !11
  br label %60

60:                                               ; preds = %55, %50
  %61 = load i32, ptr %8, align 4, !tbaa !11
  %62 = load ptr, ptr %9, align 8, !tbaa !32
  %63 = load i32, ptr %6, align 4, !tbaa !11
  %64 = sext i32 %63 to i64
  %65 = getelementptr i32, ptr %62, i64 %64
  store i32 %61, ptr %65, align 4, !tbaa !11
  br label %66

66:                                               ; preds = %60
  %67 = load i32, ptr %6, align 4, !tbaa !11
  %68 = add i32 %67, 1
  store i32 %68, ptr %6, align 4, !tbaa !11
  %69 = load i32, ptr %5, align 4, !tbaa !11
  %70 = sub i32 %69, 32
  store i32 %70, ptr %5, align 4, !tbaa !11
  br label %46, !llvm.loop !48

71:                                               ; preds = %46
  %72 = load ptr, ptr %9, align 8, !tbaa !32
  %73 = load i32, ptr %7, align 4, !tbaa !11
  %74 = mul i32 %73, 4
  %75 = sext i32 %74 to i64
  %76 = call ptr @_PyLong_FromByteArray(ptr noundef %72, i64 noundef %75, i32 noundef 1, i32 noundef 0)
  store ptr %76, ptr %10, align 8, !tbaa !3
  %77 = load ptr, ptr %9, align 8, !tbaa !32
  call void @PyMem_Free(ptr noundef %77)
  %78 = load ptr, ptr %10, align 8, !tbaa !3
  store ptr %78, ptr %3, align 8
  store i32 1, ptr %11, align 4
  br label %79

79:                                               ; preds = %71, %43, %24, %19, %14
  call void @llvm.lifetime.end.p0(i64 8, ptr %10) #7
  call void @llvm.lifetime.end.p0(i64 8, ptr %9) #7
  call void @llvm.lifetime.end.p0(i64 4, ptr %8) #7
  call void @llvm.lifetime.end.p0(i64 4, ptr %7) #7
  call void @llvm.lifetime.end.p0(i64 4, ptr %6) #7
  %80 = load ptr, ptr %3, align 8
  ret ptr %80
}