; Function Attrs: nounwind uwtable
define internal fastcc ptr @_random_Random_getrandbits_impl(ptr noundef captures(none) %0, i32 noundef %1) unnamed_addr #0 {
  %3 = icmp slt i32 %1, 0
  br i1 %3, label %4, label %6

4:                                                ; preds = %2
  %5 = load ptr, ptr @PyExc_ValueError, align 8, !tbaa !14
  tail call void @PyErr_SetString(ptr noundef %5, ptr noundef nonnull @.str.15) #8
  br label %37

6:                                                ; preds = %2
  %7 = icmp eq i32 %1, 0
  br i1 %7, label %8, label %10

8:                                                ; preds = %6
  %9 = tail call ptr @PyLong_FromLong(i64 noundef 0) #8
  br label %37

10:                                               ; preds = %6
  %11 = icmp samesign ult i32 %1, 33
  br i1 %11, label %12, label %18

12:                                               ; preds = %10
  %13 = tail call fastcc i32 @genrand_uint32(ptr noundef %0)
  %14 = sub nuw nsw i32 32, %1
  %15 = lshr i32 %13, %14
  %16 = zext i32 %15 to i64
  %17 = tail call ptr @PyLong_FromUnsignedLong(i64 noundef %16) #8
  br label %37

18:                                               ; preds = %10
  %19 = add nsw i32 %1, -1
  %20 = lshr i32 %19, 5
  %21 = shl nuw nsw i32 %20, 2
  %22 = add nuw nsw i32 %21, 4
  %23 = zext nneg i32 %22 to i64
  %24 = tail call ptr @PyMem_Malloc(i64 noundef %23) #8
  %25 = icmp eq ptr %24, null
  br i1 %25, label %27, label %.preheader.preheader

.preheader.preheader:                             ; preds = %18
  %26 = add nuw nsw i32 %20, 1
  %wide.trip.count = zext nneg i32 %26 to i64
  br label %.preheader

27:                                               ; preds = %18
  %28 = tail call ptr @PyErr_NoMemory() #8
  br label %37

.preheader:                                       ; preds = %.preheader.preheader, %.preheader
  %indvars.iv = phi i64 [ 0, %.preheader.preheader ], [ %indvars.iv.next, %.preheader ]
  %.02329 = phi i32 [ %1, %.preheader.preheader ], [ %34, %.preheader ]
  %29 = tail call fastcc i32 @genrand_uint32(ptr noundef %0)
  %30 = icmp slt i32 %.02329, 32
  %31 = sub i32 32, %.02329
  %32 = select i1 %30, i32 %31, i32 0
  %.024 = lshr i32 %29, %32
  %33 = getelementptr i32, ptr %24, i64 %indvars.iv
  store i32 %.024, ptr %33, align 4, !tbaa !29
  %indvars.iv.next = add nuw nsw i64 %indvars.iv, 1
  %34 = add i32 %.02329, -32
  %exitcond.not = icmp eq i64 %indvars.iv.next, %wide.trip.count
  br i1 %exitcond.not, label %35, label %.preheader, !llvm.loop !42

35:                                               ; preds = %.preheader
  %36 = tail call ptr @_PyLong_FromByteArray(ptr noundef nonnull %24, i64 noundef %23, i32 noundef 1, i32 noundef 0) #8
  tail call void @PyMem_Free(ptr noundef nonnull %24) #8
  br label %37

37:                                               ; preds = %35, %27, %12, %8, %4
  %.0 = phi ptr [ null, %4 ], [ %9, %8 ], [ %17, %12 ], [ null, %27 ], [ %36, %35 ]
  ret ptr %.0
}